target datalayout = "e-m:e-p270:32:32-p271:32:32-p272:64:64-i64:64-i128:128-f80:128-n8:16:32:64-S128"
target triple = "x86_64-pc-linux-gnu"

; Function Attrs: mustprogress uwtable
define internal noundef i32 @_ZN6icu_77L15computeHashCodeEPKhi(ptr noundef %0, i32 noundef %1) #3 {
  %3 = alloca ptr, align 8
  %4 = alloca i32, align 4
  %5 = alloca ptr, align 8
  %6 = alloca i32, align 4
  store ptr %0, ptr %3, align 8, !tbaa !17
  store i32 %1, ptr %4, align 4, !tbaa !19
  call void @llvm.lifetime.start.p0(i64 8, ptr %5) #11
  %7 = load ptr, ptr %3, align 8, !tbaa !17
  store ptr %7, ptr %5, align 8, !tbaa !17
  call void @llvm.lifetime.start.p0(i64 4, ptr %6) #11
  %8 = load ptr, ptr %5, align 8, !tbaa !17
  %9 = icmp eq ptr %8, null
  br i1 %9, label %13, label %10

10:                                               ; preds = %2
  %11 = load i32, ptr %4, align 4, !tbaa !19
  %12 = icmp eq i32 %11, 0
  br i1 %12, label %13, label %14

13:                                               ; preds = %10, %2
  store i32 1, ptr %6, align 4, !tbaa !19
  br label %25

14:                                               ; preds = %10
  %15 = load ptr, ptr %5, align 8, !tbaa !17
  %16 = load i32, ptr %4, align 4, !tbaa !19
  %17 = call i32 @ustr_hashCharsN_77(ptr noundef %15, i32 noundef %16)
  store i32 %17, ptr %6, align 4, !tbaa !19
  %18 = load i32, ptr %6, align 4, !tbaa !19
  %19 = icmp eq i32 %18, 0
  br i1 %19, label %23, label %20

20:                                               ; preds = %14
  %21 = load i32, ptr %6, align 4, !tbaa !19
  %22 = icmp eq i32 %21, 2
  br i1 %22, label %23, label %24

23:                                               ; preds = %20, %14
  store i32 1, ptr %6, align 4, !tbaa !19
  br label %24

24:                                               ; preds = %23, %20
  br label %25

25:                                               ; preds = %24, %13
  %26 = load i32, ptr %6, align 4, !tbaa !19
  call void @llvm.lifetime.end.p0(i64 4, ptr %6) #11
  call void @llvm.lifetime.end.p0(i64 8, ptr %5) #11
  ret i32 %26
}

; Function Attrs: mustprogress uwtable
define i32 @ucol_keyHashCode_77(ptr noundef %0, i32 noundef %1) #3 {
  %3 = alloca ptr, align 8
  %4 = alloca i32, align 4
  store ptr %0, ptr %3, align 8, !tbaa !17
  store i32 %1, ptr %4, align 4, !tbaa !19
  %5 = load ptr, ptr %3, align 8, !tbaa !17
  %6 = load i32, ptr %4, align 4, !tbaa !19
  %7 = call noundef i32 @_ZN6icu_77L15computeHashCodeEPKhi(ptr noundef %5, i32 noundef %6)
  ret i32 %7
}