; Function Attrs: mustprogress uwtable
define i32 @ucol_keyHashCode_77(ptr noundef %0, i32 noundef %1) local_unnamed_addr #2 {
  %3 = icmp eq ptr %0, null
  %4 = icmp eq i32 %1, 0
  %or.cond.i = or i1 %3, %4
  br i1 %or.cond.i, label %_ZN6icu_77L15computeHashCodeEPKhi.exit, label %5

5:                                                ; preds = %2
  %6 = tail call i32 @ustr_hashCharsN_77(ptr noundef nonnull %0, i32 noundef %1)
  %7 = and i32 %6, -3
  %or.cond3.i = icmp eq i32 %7, 0
  %spec.store.select.i = select i1 %or.cond3.i, i32 1, i32 %6
  br label %_ZN6icu_77L15computeHashCodeEPKhi.exit

_ZN6icu_77L15computeHashCodeEPKhi.exit:           ; preds = %2, %5
  %.0.i = phi i32 [ %spec.store.select.i, %5 ], [ 1, %2 ]
  ret i32 %.0.i
}